; Function Attrs: inlinehint mustprogress nounwind uwtable
define internal fastcc void @_ZN12_GLOBAL__N_16InvBitD2Ev(i32 %.0.val) unnamed_addr #4 align 2 personality ptr @__gxx_personality_v0 {
  %1 = load i8, ptr @_ZN5Yosys5RTLIL8IdString17destruct_guard_okE, align 1, !tbaa !85, !range !87, !noundef !88
  %2 = trunc nuw i8 %1 to i1
  %3 = icmp ne i32 %.0.val, 0
  %or.cond.i.i.i = and i1 %3, %2
  br i1 %or.cond.i.i.i, label %4, label %_ZN12_GLOBAL__N_15IdBitD2Ev.exit

4:                                                ; preds = %0
  %5 = sext i32 %.0.val to i64
  %6 = load ptr, ptr @_ZN5Yosys5RTLIL8IdString24global_refcount_storage_E, align 8, !tbaa !83
  %7 = getelementptr inbounds nuw i32, ptr %6, i64 %5
  %8 = load i32, ptr %7, align 4, !tbaa !60
  %9 = add nsw i32 %8, -1
  store i32 %9, ptr %7, align 4, !tbaa !60
  %10 = icmp sgt i32 %8, 1
  br i1 %10, label %_ZN12_GLOBAL__N_15IdBitD2Ev.exit, label %11

11:                                               ; preds = %4
  invoke void @_ZN5Yosys5RTLIL8IdString14free_referenceEi(i32 noundef %.0.val)
          to label %_ZN12_GLOBAL__N_15IdBitD2Ev.exit unwind label %12

12:                                               ; preds = %11
  %13 = landingpad { ptr, i32 }
          catch ptr null
  %14 = extractvalue { ptr, i32 } %13, 0
  tail call void @__clang_call_terminate(ptr %14) #32
  unreachable

_ZN12_GLOBAL__N_15IdBitD2Ev.exit:                 ; preds = %0, %4, %11
  ret void
}